(lp0
(ifindPersona
Persona
p1
(dp2
S'edad'
p3
I29
sS'nombre'
p4
S'Emiliano'
p5
sS'id'
p6
S'Persona4cca39ae-1374-4dd7-a1e9-c24a838a21e5'
p7
sba(ifindPersona
Persona
p8
(dp9
g3
I23
sg4
S'kam'
p10
sg6
S'Persona4ca2a0a4-272b-4cb5-82c3-e456527315c3'
p11
sba(ifindPersona
Persona
p12
(dp13
g3
I29
sg4
S'Emiliano'
p14
sg6
S'Persona48f1c14b-463c-4d6f-8e60-e48720dbe174'
p15
sS'Personas'
p16
g0
sba(ifindPersona
Persona
p17
(dp18
g3
I29
sg4
S'Emiliano'
p19
sg6
S'Personaee137d78-171a-4480-9ce4-3b993de70053'
p20
sg16
g0
sba(ifindPersona
Persona
p21
(dp22
g3
I29
sg4
S'Emiliano'
p23
sg6
S'Personaa17659fb-5687-4ce0-9ef9-79d86efb71c1'
p24
sg16
g0
sba(ifindPersona
Persona
p25
(dp26
g3
I29
sg4
S'Emiliano'
p27
sg6
S'Personaa7e41ed9-4d2f-4b01-b396-ebcc54304ba3'
p28
sg16
g0
sba(ifindPersona
Persona
p29
(dp30
g3
I29
sg4
S'Emiliano'
p31
sg6
S'Persona870e1a3c-d7e0-4e34-8a3f-906443faf320'
p32
sg16
g0
sba(ifindPersona
Persona
p33
(dp34
g3
I29
sg4
S'Emiliano'
p35
sg6
S'Persona24687247-177a-4997-800a-71f7041e74d7'
p36
sg16
g0
sba(ifindPersona
Persona
p37
(dp38
g3
I29
sg4
S'Emiliano'
p39
sg6
S'Personab20b9a27-411e-41a0-91c7-67ace30c808b'
p40
sg16
g0
sba(ifindPersona
Persona
p41
(dp42
g3
I29
sg4
S'Emiliano'
p43
sg6
S'Personadc2ae31d-70c5-42fd-b64f-9056a56b0ac0'
p44
sg16
g0
sba(ifindPersona
Persona
p45
(dp46
g3
I29
sg4
S'Emiliano'
p47
sg6
S'Personadd46eeab-368e-403b-958e-76c4b9c14803'
p48
sg16
g0
sba(ifindPersona
Persona
p49
(dp50
g3
I29
sg4
S'Emiliano'
p51
sg6
S'Persona62d82f20-e3af-434e-942f-07bd5bdbff6d'
p52
sba(ifindPersona
Persona
p53
(dp54
g3
I23
sg4
S'kam'
p55
sg6
S'Personaad1abec2-7b85-49f9-9082-84a43b52e259'
p56
sba(ifindPersona
Persona
p57
(dp58
g3
I29
sg4
S'Emiliano'
p59
sg6
S'Personafcfe762d-b6d3-4961-8c33-48cd184b3be0'
p60
sba(ifindPersona
Persona
p61
(dp62
g3
I23
sg4
S'kam'
p63
sg6
S'Persona185e7ce1-d03f-4586-9f7e-147320069f95'
p64
sba(ifindPersona
Persona
p65
(dp66
g3
I29
sg4
S'Emiliano'
p67
sg6
S'Persona0afed85e-c340-4bc2-ad7c-5a2840cb2ac3'
p68
sba(ifindPersona
Persona
p69
(dp70
g3
I23
sg4
S'kam'
p71
sg6
S'Personaef92cf92-5c5b-495c-8229-02c46dfa0d9e'
p72
sba(ifindPersona
Persona
p73
(dp74
g3
I29
sg4
S'Emiliano'
p75
sg6
S'Personabb58ce3a-3558-46d1-a084-be7c7712b763'
p76
sba(ifindPersona
Persona
p77
(dp78
g3
I23
sg4
S'kam'
p79
sg6
S'Persona74c197b7-1587-4de1-b648-3650dc072b7e'
p80
sba(ifindPersona
Persona
p81
(dp82
g3
I29
sg4
S'Emiliano'
p83
sg6
S'Persona17d741cf-1f67-43f2-a0cf-dda78025d956'
p84
sba(ifindPersona
Persona
p85
(dp86
g3
I23
sg4
S'kam'
p87
sg6
S'Personafd9cfc5d-1d04-4e11-aa4a-3b7c214324e9'
p88
sba(ifindPersona
Persona
p89
(dp90
g3
I29
sg4
S'Emiliano'
p91
sg6
S'Persona69ef5a77-3d01-41d3-b1c8-8bda2fbcddbe'
p92
sba(ifindPersona
Persona
p93
(dp94
g3
I23
sg4
S'kam'
p95
sg6
S'Personae3f40e18-406b-490c-9413-d0022d77a127'
p96
sba(ifindPersona
Persona
p97
(dp98
g3
I29
sg4
S'Emiliano'
p99
sg6
S'Persona733d7acd-16d3-4c7e-aa34-d28adf5752ed'
p100
sba(ifindPersona
Persona
p101
(dp102
g3
I23
sg4
S'kam'
p103
sg6
S'Persona586b7ceb-bd5e-45bc-a326-db7f3b95a82a'
p104
sba(ifindPersona
Persona
p105
(dp106
g3
I29
sg4
S'Emiliano'
p107
sg6
S'Personaf47a758d-2732-4d30-820b-e318e562b7c6'
p108
sba(ifindPersona
Persona
p109
(dp110
g3
I23
sg4
S'kam'
p111
sg6
S'Personad9ec4bcb-5a7a-4f32-8773-49478756e9f4'
p112
sba(ifindPersona
Persona
p113
(dp114
g3
I29
sg4
S'Emiliano'
p115
sg6
S'Personae7acac8f-7c29-4314-84df-c497fd619318'
p116
sba(ifindPersona
Persona
p117
(dp118
g3
I23
sg4
S'kam'
p119
sg6
S'Personaab27347f-350b-46ab-97fd-c7eeb89050cf'
p120
sba(ifindPersona
Persona
p121
(dp122
g3
I29
sg4
S'Emiliano'
p123
sg6
S'Persona924b88ff-d4db-4e5d-85eb-67b5911bc362'
p124
sba(ifindPersona
Persona
p125
(dp126
g3
I23
sg4
S'kam'
p127
sg6
S'Personabb93881d-278b-4f9d-88aa-b20dbc2a5cdd'
p128
sba.