(i__main__
Persona
p0
(dp1
S'edad'
p2
I12
sS'nombre'
p3
S'Emiliano'
p4
sb.(i__main__
Persona
p0
(dp1
S'edad'
p2
I15
sS'nombre'
p3
S'Juan'
p4
sb.(i__main__
Persona
p0
(dp1
S'edad'
p2
I12
sS'nombre'
p3
S'Emiliano'
p4
sb.(i__main__
Persona
p0
(dp1
S'edad'
p2
I15
sS'nombre'
p3
S'Juan'
p4
sb.(i__main__
Persona
p0
(dp1
S'edad'
p2
I12
sS'nombre'
p3
S'Emiliano'
p4
sb.(i__main__
Persona
p0
(dp1
S'edad'
p2
I15
sS'nombre'
p3
S'Juan'
p4
sb.